; Function Attrs: nounwind sspstrong uwtable
define dso_local i32 @msix_set_vector_notifiers(ptr noundef %dev, ptr noundef %use_notifier, ptr noundef %release_notifier, ptr noundef %poll_notifier) local_unnamed_addr #0 {
entry:
  %tobool = icmp ne ptr %use_notifier, null
  %tobool1 = icmp ne ptr %release_notifier, null
  %or.cond = and i1 %tobool, %tobool1
  br i1 %or.cond, label %if.end, label %if.else

if.else:                                          ; preds = %entry
  tail call void @__assert_fail(ptr noundef nonnull @.str.8, ptr noundef nonnull @.str.1, i32 noundef 625, ptr noundef nonnull @__PRETTY_FUNCTION__.msix_set_vector_notifiers) #15
  unreachable

if.end:                                           ; preds = %entry
  %msix_vector_use_notifier = getelementptr inbounds nuw i8, ptr %dev, i64 2560
  store ptr %use_notifier, ptr %msix_vector_use_notifier, align 16
  %msix_vector_release_notifier = getelementptr inbounds nuw i8, ptr %dev, i64 2568
  store ptr %release_notifier, ptr %msix_vector_release_notifier, align 8
  %msix_vector_poll_notifier = getelementptr inbounds nuw i8, ptr %dev, i64 2576
  store ptr %poll_notifier, ptr %msix_vector_poll_notifier, align 16
  %config = getelementptr inbounds nuw i8, ptr %dev, i64 168
  %0 = load ptr, ptr %config, align 8
  %msix_cap = getelementptr inbounds nuw i8, ptr %dev, i64 1264
  %1 = load i8, ptr %msix_cap, align 16
  %conv = zext i8 %1 to i64
  %2 = getelementptr i8, ptr %0, i64 %conv
  %arrayidx = getelementptr i8, ptr %2, i64 3
  %3 = load i8, ptr %arrayidx, align 1
  %cmp = icmp slt i8 %3, -64
  br i1 %cmp, label %for.cond.preheader, label %if.end11

for.cond.preheader:                               ; preds = %if.end
  %msix_entries_nr = getelementptr inbounds nuw i8, ptr %dev, i64 1268
  %4 = load i32, ptr %msix_entries_nr, align 4
  %cmp546 = icmp sgt i32 %4, 0
  br i1 %cmp546, label %for.body.lr.ph, label %if.end11

for.body.lr.ph:                                   ; preds = %for.cond.preheader
  %msix_function_masked.i.i = getelementptr inbounds nuw i8, ptr %dev, i64 2152
  %msix_table.i.i.i = getelementptr inbounds nuw i8, ptr %dev, i64 1272
  %msix_prepare_message.i.i = getelementptr inbounds nuw i8, ptr %dev, i64 1312
  br label %for.body

for.body:                                         ; preds = %for.body.lr.ph, %for.inc
  %indvars.iv53 = phi i32 [ -1, %for.body.lr.ph ], [ %indvars.iv.next54, %for.inc ]
  %indvars.iv = phi i64 [ 0, %for.body.lr.ph ], [ %indvars.iv.next, %for.inc ]
  %5 = load i8, ptr %msix_function_masked.i.i, align 8
  %tobool.i.i = trunc i8 %5 to i1
  %6 = trunc nuw nsw i64 %indvars.iv to i32
  %mul.i.i.i = shl i32 %6, 4
  %7 = load i8, ptr @xen_allowed, align 1
  %tobool.i.i.i = trunc i8 %7 to i1
  br i1 %tobool.i.i.i, label %land.lhs.true.i.i.i, label %if.end.i.i.i

land.lhs.true.i.i.i:                              ; preds = %for.body
  %8 = load ptr, ptr %msix_table.i.i.i, align 8
  %add.i.i.i = or disjoint i32 %mul.i.i.i, 8
  %idxprom.i.i.i = zext i32 %add.i.i.i to i64
  %arrayidx.i.i.i = getelementptr i8, ptr %8, i64 %idxprom.i.i.i
  %arrayidx.val.i.i.i = load i32, ptr %arrayidx.i.i.i, align 1
  %call1.i.i.i = tail call i32 @xen_is_pirq_msi(i32 noundef %arrayidx.val.i.i.i) #14
  %tobool2.not.i.i.i = icmp ne i32 %call1.i.i.i, 0
  %brmerge.i.i.i = or i1 %tobool2.not.i.i.i, %tobool.i.i
  br i1 %brmerge.i.i.i, label %msix_is_masked.exit.i, label %lor.rhs.i.i.i

if.end.i.i.i:                                     ; preds = %for.body
  br i1 %tobool.i.i, label %for.inc, label %lor.rhs.i.i.i

lor.rhs.i.i.i:                                    ; preds = %if.end.i.i.i, %land.lhs.true.i.i.i
  %9 = load ptr, ptr %msix_table.i.i.i, align 8
  %add5.i.i.i = or disjoint i32 %mul.i.i.i, 12
  %idxprom6.i.i.i = zext i32 %add5.i.i.i to i64
  %arrayidx7.i.i.i = getelementptr i8, ptr %9, i64 %idxprom6.i.i.i
  %10 = load i8, ptr %arrayidx7.i.i.i, align 1
  %11 = and i8 %10, 1
  %tobool8.i.i.not.i = icmp eq i8 %11, 0
  br i1 %tobool8.i.i.not.i, label %msix_set_notifier_for_vector.exit, label %for.inc

msix_is_masked.exit.i:                            ; preds = %land.lhs.true.i.i.i
  br i1 %tobool2.not.i.i.i, label %msix_set_notifier_for_vector.exit, label %for.inc

msix_set_notifier_for_vector.exit:                ; preds = %lor.rhs.i.i.i, %msix_is_masked.exit.i
  %12 = load ptr, ptr %msix_prepare_message.i.i, align 16
  %call.i.i = tail call { i64, i32 } %12(ptr noundef nonnull %dev, i32 noundef %6) #14
  %13 = extractvalue { i64, i32 } %call.i.i, 0
  %14 = extractvalue { i64, i32 } %call.i.i, 1
  %15 = load ptr, ptr %msix_vector_use_notifier, align 16
  %call2.i = tail call i32 %15(ptr noundef nonnull %dev, i32 noundef %6, i64 %13, i32 %14) #14
  %cmp7 = icmp slt i32 %call2.i, 0
  br i1 %cmp7, label %while.cond.preheader, label %for.inc

while.cond.preheader:                             ; preds = %msix_set_notifier_for_vector.exit
  %cmp1849.not = icmp eq i64 %indvars.iv, 0
  br i1 %cmp1849.not, label %while.end, label %while.body.preheader

while.body.preheader:                             ; preds = %while.cond.preheader
  %16 = zext i32 %indvars.iv53 to i64
  br label %while.body

for.inc:                                          ; preds = %if.end.i.i.i, %lor.rhs.i.i.i, %msix_is_masked.exit.i, %msix_set_notifier_for_vector.exit
  %indvars.iv.next = add nuw nsw i64 %indvars.iv, 1
  %17 = load i32, ptr %msix_entries_nr, align 4
  %18 = sext i32 %17 to i64
  %cmp5 = icmp slt i64 %indvars.iv.next, %18
  %indvars.iv.next54 = add nsw i32 %indvars.iv53, 1
  br i1 %cmp5, label %for.body, label %if.end11.loopexit, !llvm.loop !11

if.end11.loopexit:                                ; preds = %for.inc
  %.pre = load ptr, ptr %msix_vector_poll_notifier, align 16
  br label %if.end11

if.end11:                                         ; preds = %if.end11.loopexit, %for.cond.preheader, %if.end
  %19 = phi ptr [ %.pre, %if.end11.loopexit ], [ %poll_notifier, %for.cond.preheader ], [ %poll_notifier, %if.end ]
  %tobool13.not = icmp eq ptr %19, null
  br i1 %tobool13.not, label %return, label %if.then14

if.then14:                                        ; preds = %if.end11
  %msix_entries_nr16 = getelementptr inbounds nuw i8, ptr %dev, i64 1268
  %20 = load i32, ptr %msix_entries_nr16, align 4
  tail call void %19(ptr noundef nonnull %dev, i32 noundef 0, i32 noundef %20) #14
  br label %return

while.body:                                       ; preds = %while.body.preheader, %msix_unset_notifier_for_vector.exit
  %indvars.iv56 = phi i64 [ %16, %while.body.preheader ], [ %indvars.iv.next57, %msix_unset_notifier_for_vector.exit ]
  %21 = load i8, ptr %msix_function_masked.i.i, align 8
  %tobool.i.i23 = trunc i8 %21 to i1
  %22 = trunc nuw nsw i64 %indvars.iv56 to i32
  %mul.i.i.i24 = shl i32 %22, 4
  %23 = load i8, ptr @xen_allowed, align 1
  %tobool.i.i.i26 = trunc i8 %23 to i1
  br i1 %tobool.i.i.i26, label %land.lhs.true.i.i.i34, label %if.end.i.i.i27

land.lhs.true.i.i.i34:                            ; preds = %while.body
  %24 = load ptr, ptr %msix_table.i.i.i, align 8
  %add.i.i.i35 = or disjoint i32 %mul.i.i.i24, 8
  %idxprom.i.i.i36 = zext i32 %add.i.i.i35 to i64
  %arrayidx.i.i.i37 = getelementptr i8, ptr %24, i64 %idxprom.i.i.i36
  %arrayidx.val.i.i.i38 = load i32, ptr %arrayidx.i.i.i37, align 1
  %call1.i.i.i39 = tail call i32 @xen_is_pirq_msi(i32 noundef %arrayidx.val.i.i.i38) #14
  %tobool2.not.i.i.i40 = icmp ne i32 %call1.i.i.i39, 0
  %brmerge.i.i.i41 = or i1 %tobool2.not.i.i.i40, %tobool.i.i23
  br i1 %brmerge.i.i.i41, label %msix_is_masked.exit.i42, label %lor.rhs.i.i.i28

if.end.i.i.i27:                                   ; preds = %while.body
  br i1 %tobool.i.i23, label %msix_unset_notifier_for_vector.exit, label %lor.rhs.i.i.i28

lor.rhs.i.i.i28:                                  ; preds = %if.end.i.i.i27, %land.lhs.true.i.i.i34
  %25 = load ptr, ptr %msix_table.i.i.i, align 8
  %add5.i.i.i29 = or disjoint i32 %mul.i.i.i24, 12
  %idxprom6.i.i.i30 = zext i32 %add5.i.i.i29 to i64
  %arrayidx7.i.i.i31 = getelementptr i8, ptr %25, i64 %idxprom6.i.i.i30
  %26 = load i8, ptr %arrayidx7.i.i.i31, align 1
  %27 = and i8 %26, 1
  %tobool8.i.i.not.i32 = icmp eq i8 %27, 0
  br i1 %tobool8.i.i.not.i32, label %if.end.i33, label %msix_unset_notifier_for_vector.exit

msix_is_masked.exit.i42:                          ; preds = %land.lhs.true.i.i.i34
  br i1 %tobool2.not.i.i.i40, label %if.end.i33, label %msix_unset_notifier_for_vector.exit

if.end.i33:                                       ; preds = %msix_is_masked.exit.i42, %lor.rhs.i.i.i28
  %28 = load ptr, ptr %msix_vector_release_notifier, align 8
  tail call void %28(ptr noundef nonnull %dev, i32 noundef %22) #14
  br label %msix_unset_notifier_for_vector.exit

msix_unset_notifier_for_vector.exit:              ; preds = %if.end.i.i.i27, %lor.rhs.i.i.i28, %msix_is_masked.exit.i42, %if.end.i33
  %indvars.iv.next57 = add nsw i64 %indvars.iv56, -1
  %cmp18 = icmp sgt i64 %indvars.iv56, 0
  br i1 %cmp18, label %while.body, label %while.end, !llvm.loop !12

while.end:                                        ; preds = %msix_unset_notifier_for_vector.exit, %while.cond.preheader
  tail call void @llvm.memset.p0.i64(ptr noundef nonnull align 16 dereferenceable(24) %msix_vector_use_notifier, i8 0, i64 24, i1 false)
  br label %return

return:                                           ; preds = %if.end11, %if.then14, %while.end
  %retval.0 = phi i32 [ %call2.i, %while.end ], [ 0, %if.then14 ], [ 0, %if.end11 ]
  ret i32 %retval.0
}